target datalayout = "e-m:e-p270:32:32-p271:32:32-p272:64:64-i64:64-i128:128-f80:128-n8:16:32:64-S128"
target triple = "x86_64-unknown-linux-gnu"

%"struct.ClipperLib::IntPoint" = type { i64, i64 }
%"struct.ClipperLib::OutPt" = type { i32, %"struct.ClipperLib::IntPoint", ptr, ptr }

; Function Attrs: mustprogress nounwind uwtable
define linkonce_odr hidden void @_ZN10ClipperLib8IntPointC2Exx(ptr noundef nonnull align 8 dereferenceable(16) %this, i64 noundef %x, i64 noundef %y) unnamed_addr #1 comdat align 2 {
entry:
  %this.addr = alloca ptr, align 8
  %x.addr = alloca i64, align 8
  %y.addr = alloca i64, align 8
  store ptr %this, ptr %this.addr, align 8
  store i64 %x, ptr %x.addr, align 8
  store i64 %y, ptr %y.addr, align 8
  %this1 = load ptr, ptr %this.addr, align 8
  %X = getelementptr inbounds %"struct.ClipperLib::IntPoint", ptr %this1, i32 0, i32 0
  %0 = load i64, ptr %x.addr, align 8
  store i64 %0, ptr %X, align 8
  %Y = getelementptr inbounds %"struct.ClipperLib::IntPoint", ptr %this1, i32 0, i32 1
  %1 = load i64, ptr %y.addr, align 8
  store i64 %1, ptr %Y, align 8
  ret void
}

; Function Attrs: mustprogress uwtable
define linkonce_odr hidden void @_ZN10ClipperLib5OutPtC2Ev(ptr noundef nonnull align 8 dereferenceable(40) %this) unnamed_addr #0 comdat align 2 {
entry:
  %this.addr = alloca ptr, align 8
  store ptr %this, ptr %this.addr, align 8
  %this1 = load ptr, ptr %this.addr, align 8
  %Pt = getelementptr inbounds %"struct.ClipperLib::OutPt", ptr %this1, i32 0, i32 1
  call void @_ZN10ClipperLib8IntPointC2Exx(ptr noundef nonnull align 8 dereferenceable(16) %Pt, i64 noundef 0, i64 noundef 0)
  ret void
}

; Function Attrs: mustprogress uwtable
define hidden noundef ptr @_ZN10ClipperLib8DupOutPtEPNS_5OutPtEb(ptr noundef %outPt, i1 noundef zeroext %InsertAfter) #0 personality ptr @__gxx_personality_v0 {
entry:
  %outPt.addr = alloca ptr, align 8
  %InsertAfter.addr = alloca i8, align 1
  %result = alloca ptr, align 8
  %exn.slot = alloca ptr, align 8
  %ehselector.slot = alloca i32, align 4
  store ptr %outPt, ptr %outPt.addr, align 8
  %frombool = zext i1 %InsertAfter to i8
  store i8 %frombool, ptr %InsertAfter.addr, align 1
  %call = call noalias noundef nonnull ptr @_Znwm(i64 noundef 40) #17
  invoke void @_ZN10ClipperLib5OutPtC2Ev(ptr noundef nonnull align 8 dereferenceable(40) %call)
          to label %invoke.cont unwind label %lpad

invoke.cont:                                      ; preds = %entry
  store ptr %call, ptr %result, align 8
  %0 = load ptr, ptr %outPt.addr, align 8
  %Pt = getelementptr inbounds %"struct.ClipperLib::OutPt", ptr %0, i32 0, i32 1
  %1 = load ptr, ptr %result, align 8
  %Pt1 = getelementptr inbounds %"struct.ClipperLib::OutPt", ptr %1, i32 0, i32 1
  call void @llvm.memcpy.p0.p0.i64(ptr align 8 %Pt1, ptr align 8 %Pt, i64 16, i1 false)
  %2 = load ptr, ptr %outPt.addr, align 8
  %Idx = getelementptr inbounds %"struct.ClipperLib::OutPt", ptr %2, i32 0, i32 0
  %3 = load i32, ptr %Idx, align 8
  %4 = load ptr, ptr %result, align 8
  %Idx2 = getelementptr inbounds %"struct.ClipperLib::OutPt", ptr %4, i32 0, i32 0
  store i32 %3, ptr %Idx2, align 8
  %5 = load i8, ptr %InsertAfter.addr, align 1
  %tobool = trunc i8 %5 to i1
  br i1 %tobool, label %if.then, label %if.else

if.then:                                          ; preds = %invoke.cont
  %6 = load ptr, ptr %outPt.addr, align 8
  %Next = getelementptr inbounds %"struct.ClipperLib::OutPt", ptr %6, i32 0, i32 2
  %7 = load ptr, ptr %Next, align 8
  %8 = load ptr, ptr %result, align 8
  %Next3 = getelementptr inbounds %"struct.ClipperLib::OutPt", ptr %8, i32 0, i32 2
  store ptr %7, ptr %Next3, align 8
  %9 = load ptr, ptr %outPt.addr, align 8
  %10 = load ptr, ptr %result, align 8
  %Prev = getelementptr inbounds %"struct.ClipperLib::OutPt", ptr %10, i32 0, i32 3
  store ptr %9, ptr %Prev, align 8
  %11 = load ptr, ptr %result, align 8
  %12 = load ptr, ptr %outPt.addr, align 8
  %Next4 = getelementptr inbounds %"struct.ClipperLib::OutPt", ptr %12, i32 0, i32 2
  %13 = load ptr, ptr %Next4, align 8
  %Prev5 = getelementptr inbounds %"struct.ClipperLib::OutPt", ptr %13, i32 0, i32 3
  store ptr %11, ptr %Prev5, align 8
  %14 = load ptr, ptr %result, align 8
  %15 = load ptr, ptr %outPt.addr, align 8
  %Next6 = getelementptr inbounds %"struct.ClipperLib::OutPt", ptr %15, i32 0, i32 2
  store ptr %14, ptr %Next6, align 8
  br label %if.end

lpad:                                             ; preds = %entry
  %16 = landingpad { ptr, i32 }
          cleanup
  %17 = extractvalue { ptr, i32 } %16, 0
  store ptr %17, ptr %exn.slot, align 8
  %18 = extractvalue { ptr, i32 } %16, 1
  store i32 %18, ptr %ehselector.slot, align 4
  call void @_ZdlPv(ptr noundef %call) #14
  br label %eh.resume

if.else:                                          ; preds = %invoke.cont
  %19 = load ptr, ptr %outPt.addr, align 8
  %Prev7 = getelementptr inbounds %"struct.ClipperLib::OutPt", ptr %19, i32 0, i32 3
  %20 = load ptr, ptr %Prev7, align 8
  %21 = load ptr, ptr %result, align 8
  %Prev8 = getelementptr inbounds %"struct.ClipperLib::OutPt", ptr %21, i32 0, i32 3
  store ptr %20, ptr %Prev8, align 8
  %22 = load ptr, ptr %outPt.addr, align 8
  %23 = load ptr, ptr %result, align 8
  %Next9 = getelementptr inbounds %"struct.ClipperLib::OutPt", ptr %23, i32 0, i32 2
  store ptr %22, ptr %Next9, align 8
  %24 = load ptr, ptr %result, align 8
  %25 = load ptr, ptr %outPt.addr, align 8
  %Prev10 = getelementptr inbounds %"struct.ClipperLib::OutPt", ptr %25, i32 0, i32 3
  %26 = load ptr, ptr %Prev10, align 8
  %Next11 = getelementptr inbounds %"struct.ClipperLib::OutPt", ptr %26, i32 0, i32 2
  store ptr %24, ptr %Next11, align 8
  %27 = load ptr, ptr %result, align 8
  %28 = load ptr, ptr %outPt.addr, align 8
  %Prev12 = getelementptr inbounds %"struct.ClipperLib::OutPt", ptr %28, i32 0, i32 3
  store ptr %27, ptr %Prev12, align 8
  br label %if.end

if.end:                                           ; preds = %if.else, %if.then
  %29 = load ptr, ptr %result, align 8
  ret ptr %29

eh.resume:                                        ; preds = %lpad
  %exn = load ptr, ptr %exn.slot, align 8
  %sel = load i32, ptr %ehselector.slot, align 4
  %lpad.val = insertvalue { ptr, i32 } poison, ptr %exn, 0
  %lpad.val13 = insertvalue { ptr, i32 } %lpad.val, i32 %sel, 1
  resume { ptr, i32 } %lpad.val13
}