; Function Attrs: mustprogress uwtable
define hidden noundef nonnull ptr @_ZN10ClipperLib8DupOutPtEPNS_5OutPtEb(ptr noundef %outPt, i1 noundef zeroext %InsertAfter) local_unnamed_addr #0 personality ptr @__gxx_personality_v0 {
invoke.cont:
  %call = tail call noalias noundef nonnull dereferenceable(40) ptr @_Znwm(i64 noundef 40) #30
  %Pt.i = getelementptr inbounds i8, ptr %call, i64 8
  %Pt = getelementptr inbounds i8, ptr %outPt, i64 8
  tail call void @llvm.memcpy.p0.p0.i64(ptr noundef nonnull align 8 dereferenceable(16) %Pt.i, ptr noundef nonnull align 8 dereferenceable(16) %Pt, i64 16, i1 false)
  %0 = load i32, ptr %outPt, align 8
  store i32 %0, ptr %call, align 8
  br i1 %InsertAfter, label %if.then, label %if.else

if.then:                                          ; preds = %invoke.cont
  %Next = getelementptr inbounds i8, ptr %outPt, i64 24
  %1 = load ptr, ptr %Next, align 8
  %Next3 = getelementptr inbounds i8, ptr %call, i64 24
  store ptr %1, ptr %Next3, align 8
  %Prev = getelementptr inbounds i8, ptr %call, i64 32
  store ptr %outPt, ptr %Prev, align 8
  %Prev5 = getelementptr inbounds i8, ptr %1, i64 32
  br label %if.end

if.else:                                          ; preds = %invoke.cont
  %Prev7 = getelementptr inbounds i8, ptr %outPt, i64 32
  %2 = load ptr, ptr %Prev7, align 8
  %Prev8 = getelementptr inbounds i8, ptr %call, i64 32
  store ptr %2, ptr %Prev8, align 8
  %Next9 = getelementptr inbounds i8, ptr %call, i64 24
  store ptr %outPt, ptr %Next9, align 8
  %Next11 = getelementptr inbounds i8, ptr %2, i64 24
  br label %if.end

if.end:                                           ; preds = %if.else, %if.then
  %Next11.sink = phi ptr [ %Next11, %if.else ], [ %Prev5, %if.then ]
  %Prev7.sink = phi ptr [ %Prev7, %if.else ], [ %Next, %if.then ]
  store ptr %call, ptr %Next11.sink, align 8
  store ptr %call, ptr %Prev7.sink, align 8
  ret ptr %call
}